; Function Attrs: mustprogress uwtable
define void @mupAddValIdent(ptr noundef %0, ptr noundef %1) local_unnamed_addr #11 personality ptr @__gxx_personality_v0 {
  %3 = alloca %"class.mu::ParserError", align 8
  %4 = load ptr, ptr %0, align 8, !tbaa !4
  invoke void @_ZN2mu10ParserBase11AddValIdentEPFiPKcPiPdE(ptr noundef nonnull align 8 dereferenceable(596) %4, ptr noundef %1)
          to label %41 unwind label %5

5:                                                ; preds = %2
  %6 = landingpad { ptr, i32 }
          catch ptr @_ZTIN2mu11ParserErrorE
          catch ptr null
  %7 = extractvalue { ptr, i32 } %6, 0
  %8 = extractvalue { ptr, i32 } %6, 1
  %9 = tail call i32 @llvm.eh.typeid.for.p0(ptr nonnull @_ZTIN2mu11ParserErrorE) #23
  %10 = icmp eq i32 %8, %9
  %11 = tail call ptr @__cxa_begin_catch(ptr %7) #23
  br i1 %10, label %12, label %20

12:                                               ; preds = %5
  %13 = getelementptr inbounds nuw i8, ptr %0, i64 8
  %14 = invoke noundef nonnull align 8 dereferenceable(112) ptr @_ZN2mu11ParserErroraSERKS0_(ptr noundef nonnull align 8 dereferenceable(112) %13, ptr noundef nonnull align 8 dereferenceable(112) %11)
          to label %15 unwind label %38

15:                                               ; preds = %12
  %16 = getelementptr inbounds nuw i8, ptr %0, i64 128
  store i8 1, ptr %16, align 8, !tbaa !19
  %17 = getelementptr inbounds nuw i8, ptr %0, i64 120
  %18 = load ptr, ptr %17, align 8, !tbaa !20
  %.not28 = icmp eq ptr %18, null
  br i1 %.not28, label %40, label %19

19:                                               ; preds = %15
  invoke void %18(ptr noundef nonnull %0)
          to label %40 unwind label %38

20:                                               ; preds = %5
  call void @llvm.lifetime.start.p0(i64 112, ptr nonnull %3) #23
  invoke void @_ZN2mu11ParserErrorC1ENS_11EErrorCodesE(ptr noundef nonnull align 8 dereferenceable(112) %3, i32 noundef 39)
          to label %21 unwind label %29

21:                                               ; preds = %20
  %22 = getelementptr inbounds nuw i8, ptr %0, i64 8
  %23 = invoke noundef nonnull align 8 dereferenceable(112) ptr @_ZN2mu11ParserErroraSERKS0_(ptr noundef nonnull align 8 dereferenceable(112) %22, ptr noundef nonnull align 8 dereferenceable(112) %3)
          to label %24 unwind label %31

24:                                               ; preds = %21
  call void @_ZN2mu11ParserErrorD1Ev(ptr noundef nonnull align 8 dereferenceable(112) %3) #23
  call void @llvm.lifetime.end.p0(i64 112, ptr nonnull %3) #23
  %25 = getelementptr inbounds nuw i8, ptr %0, i64 128
  store i8 1, ptr %25, align 8, !tbaa !19
  %26 = getelementptr inbounds nuw i8, ptr %0, i64 120
  %27 = load ptr, ptr %26, align 8, !tbaa !20
  %.not = icmp eq ptr %27, null
  br i1 %.not, label %36, label %28

28:                                               ; preds = %24
  invoke void %27(ptr noundef nonnull %0)
          to label %36 unwind label %34

29:                                               ; preds = %20
  %30 = landingpad { ptr, i32 }
          cleanup
  br label %33

31:                                               ; preds = %21
  %32 = landingpad { ptr, i32 }
          cleanup
  call void @_ZN2mu11ParserErrorD1Ev(ptr noundef nonnull align 8 dereferenceable(112) %3) #23
  br label %33

33:                                               ; preds = %31, %29
  %.pn = phi { ptr, i32 } [ %32, %31 ], [ %30, %29 ]
  call void @llvm.lifetime.end.p0(i64 112, ptr nonnull %3) #23
  br label %37

34:                                               ; preds = %28
  %35 = landingpad { ptr, i32 }
          cleanup
  br label %37

36:                                               ; preds = %28, %24
  call void @__cxa_end_catch()
  br label %41

37:                                               ; preds = %34, %33
  %.pn26 = phi { ptr, i32 } [ %35, %34 ], [ %.pn, %33 ]
  invoke void @__cxa_end_catch()
          to label %42 unwind label %43

38:                                               ; preds = %19, %12
  %39 = landingpad { ptr, i32 }
          cleanup
  invoke void @__cxa_end_catch()
          to label %42 unwind label %43

40:                                               ; preds = %19, %15
  tail call void @__cxa_end_catch()
  br label %41

41:                                               ; preds = %2, %40, %36
  ret void

42:                                               ; preds = %38, %37
  %.pn29 = phi { ptr, i32 } [ %.pn26, %37 ], [ %39, %38 ]
  resume { ptr, i32 } %.pn29

43:                                               ; preds = %38, %37
  %44 = landingpad { ptr, i32 }
          catch ptr null
  %45 = extractvalue { ptr, i32 } %44, 0
  call void @__clang_call_terminate(ptr %45) #24
  unreachable
}